target datalayout = "e-m:e-p270:32:32-p271:32:32-p272:64:64-i64:64-i128:128-f80:128-n8:16:32:64-S128"
target triple = "x86_64-pc-linux-gnu"

%struct.slurm_conf_t = type { i64, ptr, i16, ptr, ptr, ptr, ptr, ptr, i16, ptr, ptr, ptr, ptr, ptr, ptr, ptr, i16, ptr, ptr, ptr, ptr, i16, ptr, ptr, ptr, i64, ptr, ptr, ptr, ptr, i16, ptr, ptr, i16, i32, ptr, i32, ptr, i32, i32, ptr, ptr, i64, i64, ptr, i16, i16, ptr, i32, i32, ptr, i32, ptr, i32, i16, i16, i16, ptr, i16, i16, ptr, ptr, i32, i16, i16, ptr, i32, i16, ptr, ptr, ptr, ptr, i16, ptr, ptr, ptr, ptr, i32, ptr, ptr, ptr, ptr, i16, i16, ptr, i32, i32, i32, i16, i16, ptr, ptr, i16, ptr, ptr, i32, i32, i32, i32, i32, i64, i32, i32, i16, ptr, ptr, i32, ptr, ptr, ptr, i16, i32, ptr, ptr, i16, ptr, ptr, i32, i16, ptr, ptr, ptr, ptr, i32, i32, i16, i16, i32, ptr, i16, ptr, i32, i32, i32, i32, i32, i32, ptr, i16, ptr, ptr, i32, i16, ptr, i32, i16, i16, ptr, ptr, ptr, i16, ptr, ptr, ptr, ptr, i16, i16, ptr, i16, ptr, i16, ptr, i16, ptr, i16, ptr, ptr, ptr, ptr, i16, ptr, ptr, ptr, i32, ptr, i32, ptr, ptr, i16, ptr, ptr, i32, i16, ptr, ptr, i16, i16, ptr, i16, ptr, ptr, ptr, i32, ptr, i16, i16, ptr, ptr, ptr, ptr, ptr, ptr, ptr, ptr, i16, i32, i16, ptr, ptr, ptr, ptr, i32, ptr, ptr, ptr, i16, ptr, ptr, ptr, i16, ptr, i16, ptr, i16, i16, ptr }
%struct.sackd_node_t = type { ptr, ptr, i64, i16 }
%struct.agent_arg_t = type { i32, i16, i32, i8, ptr, ptr, i16, i32, ptr, i16 }

@.str.7 = private unnamed_addr constant [12 x i8] c"sackd_mgr.c\00", align 1
@__func__._each_sackd_node = private unnamed_addr constant [17 x i8] c"_each_sackd_node\00", align 1
@slurm_conf = external global %struct.slurm_conf_t, align 8

; Function Attrs: nounwind uwtable
define internal i32 @_each_sackd_node(ptr noundef %0, ptr noundef %1) #0 {
  %3 = alloca ptr, align 8
  %4 = alloca ptr, align 8
  %5 = alloca ptr, align 8
  %6 = alloca ptr, align 8
  store ptr %0, ptr %3, align 8
  store ptr %1, ptr %4, align 8
  call void @llvm.lifetime.start.p0(i64 8, ptr %5) #7
  %7 = load ptr, ptr %3, align 8
  store ptr %7, ptr %5, align 8
  call void @llvm.lifetime.start.p0(i64 8, ptr %6) #7
  %8 = call ptr @slurm_xcalloc(i64 noundef 1, i64 noundef 56, i1 noundef zeroext true, i1 noundef zeroext false, ptr noundef @.str.7, i32 noundef 186, ptr noundef @__func__._each_sackd_node)
  store ptr %8, ptr %6, align 8
  %9 = call ptr @slurm_xcalloc(i64 noundef 1, i64 noundef 128, i1 noundef zeroext true, i1 noundef zeroext false, ptr noundef @.str.7, i32 noundef 188, ptr noundef @__func__._each_sackd_node)
  %10 = load ptr, ptr %6, align 8
  %11 = getelementptr inbounds nuw %struct.agent_arg_t, ptr %10, i32 0, i32 4
  store ptr %9, ptr %11, align 8
  %12 = load ptr, ptr %6, align 8
  %13 = getelementptr inbounds nuw %struct.agent_arg_t, ptr %12, i32 0, i32 4
  %14 = load ptr, ptr %13, align 8
  %15 = load i32, ptr getelementptr inbounds nuw (%struct.slurm_conf_t, ptr @slurm_conf, i32 0, i32 192), align 8
  %16 = trunc i32 %15 to i16
  %17 = load ptr, ptr %5, align 8
  %18 = getelementptr inbounds nuw %struct.sackd_node_t, ptr %17, i32 0, i32 1
  %19 = load ptr, ptr %18, align 8
  call void @slurm_set_addr(ptr noundef %14, i16 noundef zeroext %16, ptr noundef %19)
  %20 = call ptr @new_config_response(i1 noundef zeroext false)
  %21 = load ptr, ptr %6, align 8
  %22 = getelementptr inbounds nuw %struct.agent_arg_t, ptr %21, i32 0, i32 8
  store ptr %20, ptr %22, align 8
  %23 = load ptr, ptr %6, align 8
  %24 = getelementptr inbounds nuw %struct.agent_arg_t, ptr %23, i32 0, i32 7
  store i32 1006, ptr %24, align 4
  %25 = load ptr, ptr %5, align 8
  %26 = getelementptr inbounds nuw %struct.sackd_node_t, ptr %25, i32 0, i32 0
  %27 = load ptr, ptr %26, align 8
  %28 = call ptr @hostlist_create(ptr noundef %27)
  %29 = load ptr, ptr %6, align 8
  %30 = getelementptr inbounds nuw %struct.agent_arg_t, ptr %29, i32 0, i32 5
  store ptr %28, ptr %30, align 8
  %31 = load ptr, ptr %6, align 8
  %32 = getelementptr inbounds nuw %struct.agent_arg_t, ptr %31, i32 0, i32 0
  store i32 1, ptr %32, align 8
  %33 = load ptr, ptr %5, align 8
  %34 = getelementptr inbounds nuw %struct.sackd_node_t, ptr %33, i32 0, i32 3
  %35 = load i16, ptr %34, align 8
  %36 = load ptr, ptr %6, align 8
  %37 = getelementptr inbounds nuw %struct.agent_arg_t, ptr %36, i32 0, i32 6
  store i16 %35, ptr %37, align 8
  %38 = load ptr, ptr %6, align 8
  %39 = getelementptr inbounds nuw %struct.agent_arg_t, ptr %38, i32 0, i32 1
  store i16 0, ptr %39, align 4
  %40 = load ptr, ptr %6, align 8
  %41 = load i32, ptr getelementptr inbounds nuw (%struct.slurm_conf_t, ptr @slurm_conf, i32 0, i32 173), align 8
  call void @set_agent_arg_r_uid(ptr noundef %40, i32 noundef %41)
  %42 = load ptr, ptr %6, align 8
  call void @agent_queue_request(ptr noundef %42)
  call void @llvm.lifetime.end.p0(i64 8, ptr %6) #7
  call void @llvm.lifetime.end.p0(i64 8, ptr %5) #7
  ret i32 0
}