; Function Attrs: nounwind uwtable
define internal noundef i32 @_each_sackd_node(ptr noundef readonly captures(none) %0, ptr readnone captures(none) %1) #0 {
  %3 = tail call ptr @slurm_xcalloc(i64 noundef 1, i64 noundef 56, i1 noundef zeroext true, i1 noundef zeroext false, ptr noundef nonnull @.str.7, i32 noundef 186, ptr noundef nonnull @__func__._each_sackd_node) #7
  %4 = tail call ptr @slurm_xcalloc(i64 noundef 1, i64 noundef 128, i1 noundef zeroext true, i1 noundef zeroext false, ptr noundef nonnull @.str.7, i32 noundef 188, ptr noundef nonnull @__func__._each_sackd_node) #7
  %5 = getelementptr inbounds nuw i8, ptr %3, i64 16
  store ptr %4, ptr %5, align 8
  %6 = load i32, ptr getelementptr inbounds nuw (i8, ptr @slurm_conf, i64 1288), align 8
  %7 = trunc i32 %6 to i16
  %8 = getelementptr inbounds nuw i8, ptr %0, i64 8
  %9 = load ptr, ptr %8, align 8
  tail call void @slurm_set_addr(ptr noundef %4, i16 noundef zeroext %7, ptr noundef %9) #7
  %10 = tail call ptr @new_config_response(i1 noundef zeroext false) #7
  %11 = getelementptr inbounds nuw i8, ptr %3, i64 40
  store ptr %10, ptr %11, align 8
  %12 = getelementptr inbounds nuw i8, ptr %3, i64 36
  store i32 1006, ptr %12, align 4
  %13 = load ptr, ptr %0, align 8
  %14 = tail call ptr @hostlist_create(ptr noundef %13) #7
  %15 = getelementptr inbounds nuw i8, ptr %3, i64 24
  store ptr %14, ptr %15, align 8
  store i32 1, ptr %3, align 8
  %16 = getelementptr inbounds nuw i8, ptr %0, i64 24
  %17 = load i16, ptr %16, align 8
  %18 = getelementptr inbounds nuw i8, ptr %3, i64 32
  store i16 %17, ptr %18, align 8
  %19 = getelementptr inbounds nuw i8, ptr %3, i64 4
  store i16 0, ptr %19, align 4
  %20 = load i32, ptr getelementptr inbounds nuw (i8, ptr @slurm_conf, i64 1152), align 8
  tail call void @set_agent_arg_r_uid(ptr noundef nonnull %3, i32 noundef %20) #7
  tail call void @agent_queue_request(ptr noundef nonnull %3) #7
  ret i32 0
}